target datalayout = "e-m:e-p270:32:32-p271:32:32-p272:64:64-i64:64-i128:128-f80:128-n8:16:32:64-S128"
target triple = "x86_64-pc-linux-gnu"

%struct._sapi_globals_struct = type { ptr, %struct.sapi_request_info, %struct.sapi_headers_struct, i64, i8, i8, %struct.stat, ptr, ptr, ptr, i64, i32, i8, double, %struct._zend_array, %struct._zval_struct, %struct._zend_fcall_info_cache, %struct.sapi_request_parse_body_context }
%struct.sapi_request_info = type { ptr, ptr, ptr, i64, ptr, ptr, ptr, ptr, i8, i8, i8, ptr, ptr, ptr, ptr, ptr, ptr, ptr, i32, i32, ptr, i32 }
%struct.sapi_headers_struct = type { %struct._zend_llist, i32, i8, ptr, ptr }
%struct._zend_llist = type { ptr, ptr, i64, i64, ptr, i8, ptr }
%struct.stat = type { i64, i64, i64, i32, i32, i32, i32, i64, i64, i64, i64, %struct.timespec, %struct.timespec, %struct.timespec, [3 x i64] }
%struct.timespec = type { i64, i64 }
%struct._zend_array = type { %struct._zend_refcounted_h, %union.anon.0, i32, %union.anon.1, i32, i32, i32, i32, i64, ptr }
%struct._zend_refcounted_h = type { i32, %union.anon }
%union.anon = type { i32 }
%union.anon.0 = type { i32 }
%union.anon.1 = type { ptr }
%struct._zval_struct = type { %union._zend_value, %union.anon.3, %union.anon.6 }
%union._zend_value = type { i64 }
%union.anon.3 = type { i32 }
%union.anon.6 = type { i32 }
%struct._zend_fcall_info_cache = type { ptr, ptr, ptr, ptr, ptr }
%struct.sapi_request_parse_body_context = type { i8, [5 x %struct.anon.7] }
%struct.anon.7 = type { i8, i64 }
%struct._sapi_module_struct = type { ptr, ptr, ptr, ptr, ptr, ptr, ptr, ptr, ptr, ptr, ptr, ptr, ptr, ptr, ptr, ptr, ptr, ptr, ptr, ptr, ptr, ptr, ptr, ptr, i32, i32, ptr, ptr, ptr, ptr, ptr, ptr, i32, ptr, ptr, ptr }
%struct.multipart_buffer = type { ptr, ptr, i32, i32, ptr, ptr, i32, ptr, ptr, i64 }

@sapi_globals = external global %struct._sapi_globals_struct, align 8
@sapi_module = external global %struct._sapi_module_struct, align 8

; Function Attrs: nounwind uwtable
define internal ptr @php_ap_memstr(ptr noundef %0, i32 noundef %1, ptr noundef %2, i32 noundef %3, i32 noundef %4) #0 {
  %6 = alloca ptr, align 8
  %7 = alloca i32, align 4
  %8 = alloca ptr, align 8
  %9 = alloca i32, align 4
  %10 = alloca i32, align 4
  %11 = alloca i32, align 4
  %12 = alloca ptr, align 8
  store ptr %0, ptr %6, align 8, !tbaa !41
  store i32 %1, ptr %7, align 4, !tbaa !43
  store ptr %2, ptr %8, align 8, !tbaa !41
  store i32 %3, ptr %9, align 4, !tbaa !43
  store i32 %4, ptr %10, align 4, !tbaa !43
  call void @llvm.lifetime.start.p0(i64 4, ptr %11) #15
  %13 = load i32, ptr %7, align 4, !tbaa !43
  store i32 %13, ptr %11, align 4, !tbaa !43
  call void @llvm.lifetime.start.p0(i64 8, ptr %12) #15
  %14 = load ptr, ptr %6, align 8, !tbaa !41
  store ptr %14, ptr %12, align 8, !tbaa !41
  br label %15

15:                                               ; preds = %57, %5
  %16 = load ptr, ptr %12, align 8, !tbaa !41
  %17 = load ptr, ptr %8, align 8, !tbaa !41
  %18 = getelementptr inbounds i8, ptr %17, i64 0
  %19 = load i8, ptr %18, align 1, !tbaa !33
  %20 = sext i8 %19 to i32
  %21 = load i32, ptr %11, align 4, !tbaa !43
  %22 = sext i32 %21 to i64
  %23 = call ptr @memchr(ptr noundef %16, i32 noundef %20, i64 noundef %22) #16
  store ptr %23, ptr %12, align 8, !tbaa !41
  %24 = icmp ne ptr %23, null
  br i1 %24, label %25, label %62

25:                                               ; preds = %15
  %26 = load i32, ptr %7, align 4, !tbaa !43
  %27 = sext i32 %26 to i64
  %28 = load ptr, ptr %12, align 8, !tbaa !41
  %29 = load ptr, ptr %6, align 8, !tbaa !41
  %30 = ptrtoint ptr %28 to i64
  %31 = ptrtoint ptr %29 to i64
  %32 = sub i64 %30, %31
  %33 = sub nsw i64 %27, %32
  %34 = trunc i64 %33 to i32
  store i32 %34, ptr %11, align 4, !tbaa !43
  %35 = load ptr, ptr %8, align 8, !tbaa !41
  %36 = load ptr, ptr %12, align 8, !tbaa !41
  %37 = load i32, ptr %9, align 4, !tbaa !43
  %38 = load i32, ptr %11, align 4, !tbaa !43
  %39 = icmp slt i32 %37, %38
  br i1 %39, label %40, label %42

40:                                               ; preds = %25
  %41 = load i32, ptr %9, align 4, !tbaa !43
  br label %44

42:                                               ; preds = %25
  %43 = load i32, ptr %11, align 4, !tbaa !43
  br label %44

44:                                               ; preds = %42, %40
  %45 = phi i32 [ %41, %40 ], [ %43, %42 ]
  %46 = sext i32 %45 to i64
  %47 = call i32 @memcmp(ptr noundef %35, ptr noundef %36, i64 noundef %46) #16
  %48 = icmp eq i32 %47, 0
  br i1 %48, label %49, label %57

49:                                               ; preds = %44
  %50 = load i32, ptr %10, align 4, !tbaa !43
  %51 = icmp ne i32 %50, 0
  br i1 %51, label %56, label %52

52:                                               ; preds = %49
  %53 = load i32, ptr %11, align 4, !tbaa !43
  %54 = load i32, ptr %9, align 4, !tbaa !43
  %55 = icmp sge i32 %53, %54
  br i1 %55, label %56, label %57

56:                                               ; preds = %52, %49
  br label %62

57:                                               ; preds = %52, %44
  %58 = load ptr, ptr %12, align 8, !tbaa !41
  %59 = getelementptr inbounds nuw i8, ptr %58, i32 1
  store ptr %59, ptr %12, align 8, !tbaa !41
  %60 = load i32, ptr %11, align 4, !tbaa !43
  %61 = add nsw i32 %60, -1
  store i32 %61, ptr %11, align 4, !tbaa !43
  br label %15

62:                                               ; preds = %56, %15
  %63 = load ptr, ptr %12, align 8, !tbaa !41
  call void @llvm.lifetime.end.p0(i64 8, ptr %12) #15
  call void @llvm.lifetime.end.p0(i64 4, ptr %11) #15
  ret ptr %63
}

; Function Attrs: nounwind uwtable
define internal i32 @fill_buffer(ptr noundef %0) #0 {
  %2 = alloca ptr, align 8
  %3 = alloca i32, align 4
  %4 = alloca i32, align 4
  %5 = alloca i32, align 4
  %6 = alloca ptr, align 8
  %7 = alloca i32, align 4
  store ptr %0, ptr %2, align 8, !tbaa !42
  call void @llvm.lifetime.start.p0(i64 4, ptr %3) #15
  call void @llvm.lifetime.start.p0(i64 4, ptr %4) #15
  store i32 0, ptr %4, align 4, !tbaa !43
  call void @llvm.lifetime.start.p0(i64 4, ptr %5) #15
  store i32 0, ptr %5, align 4, !tbaa !43
  %8 = load ptr, ptr %2, align 8, !tbaa !42
  %9 = getelementptr inbounds nuw %struct.multipart_buffer, ptr %8, i32 0, i32 3
  %10 = load i32, ptr %9, align 4, !tbaa !107
  %11 = icmp sgt i32 %10, 0
  br i1 %11, label %12, label %31

12:                                               ; preds = %1
  %13 = load ptr, ptr %2, align 8, !tbaa !42
  %14 = getelementptr inbounds nuw %struct.multipart_buffer, ptr %13, i32 0, i32 1
  %15 = load ptr, ptr %14, align 8, !tbaa !106
  %16 = load ptr, ptr %2, align 8, !tbaa !42
  %17 = getelementptr inbounds nuw %struct.multipart_buffer, ptr %16, i32 0, i32 0
  %18 = load ptr, ptr %17, align 8, !tbaa !102
  %19 = icmp ne ptr %15, %18
  br i1 %19, label %20, label %31

20:                                               ; preds = %12
  %21 = load ptr, ptr %2, align 8, !tbaa !42
  %22 = getelementptr inbounds nuw %struct.multipart_buffer, ptr %21, i32 0, i32 0
  %23 = load ptr, ptr %22, align 8, !tbaa !102
  %24 = load ptr, ptr %2, align 8, !tbaa !42
  %25 = getelementptr inbounds nuw %struct.multipart_buffer, ptr %24, i32 0, i32 1
  %26 = load ptr, ptr %25, align 8, !tbaa !106
  %27 = load ptr, ptr %2, align 8, !tbaa !42
  %28 = getelementptr inbounds nuw %struct.multipart_buffer, ptr %27, i32 0, i32 3
  %29 = load i32, ptr %28, align 4, !tbaa !107
  %30 = sext i32 %29 to i64
  call void @llvm.memmove.p0.p0.i64(ptr align 1 %23, ptr align 1 %26, i64 %30, i1 false)
  br label %31

31:                                               ; preds = %20, %12, %1
  %32 = load ptr, ptr %2, align 8, !tbaa !42
  %33 = getelementptr inbounds nuw %struct.multipart_buffer, ptr %32, i32 0, i32 0
  %34 = load ptr, ptr %33, align 8, !tbaa !102
  %35 = load ptr, ptr %2, align 8, !tbaa !42
  %36 = getelementptr inbounds nuw %struct.multipart_buffer, ptr %35, i32 0, i32 1
  store ptr %34, ptr %36, align 8, !tbaa !106
  %37 = load ptr, ptr %2, align 8, !tbaa !42
  %38 = getelementptr inbounds nuw %struct.multipart_buffer, ptr %37, i32 0, i32 2
  %39 = load i32, ptr %38, align 8, !tbaa !104
  %40 = load ptr, ptr %2, align 8, !tbaa !42
  %41 = getelementptr inbounds nuw %struct.multipart_buffer, ptr %40, i32 0, i32 3
  %42 = load i32, ptr %41, align 4, !tbaa !107
  %43 = sub nsw i32 %39, %42
  store i32 %43, ptr %3, align 4, !tbaa !43
  br label %44

44:                                               ; preds = %84, %31
  %45 = load i32, ptr %3, align 4, !tbaa !43
  %46 = icmp sgt i32 %45, 0
  br i1 %46, label %47, label %85

47:                                               ; preds = %44
  call void @llvm.lifetime.start.p0(i64 8, ptr %6) #15
  %48 = load ptr, ptr %2, align 8, !tbaa !42
  %49 = getelementptr inbounds nuw %struct.multipart_buffer, ptr %48, i32 0, i32 0
  %50 = load ptr, ptr %49, align 8, !tbaa !102
  %51 = load ptr, ptr %2, align 8, !tbaa !42
  %52 = getelementptr inbounds nuw %struct.multipart_buffer, ptr %51, i32 0, i32 3
  %53 = load i32, ptr %52, align 4, !tbaa !107
  %54 = sext i32 %53 to i64
  %55 = getelementptr inbounds i8, ptr %50, i64 %54
  store ptr %55, ptr %6, align 8, !tbaa !41
  %56 = load ptr, ptr getelementptr inbounds nuw (%struct._sapi_module_struct, ptr @sapi_module, i32 0, i32 14), align 8, !tbaa !123
  %57 = load ptr, ptr %6, align 8, !tbaa !41
  %58 = load i32, ptr %3, align 4, !tbaa !43
  %59 = sext i32 %58 to i64
  %60 = call i64 %56(ptr noundef %57, i64 noundef %59)
  %61 = trunc i64 %60 to i32
  store i32 %61, ptr %5, align 4, !tbaa !43
  %62 = load i32, ptr %5, align 4, !tbaa !43
  %63 = icmp sgt i32 %62, 0
  br i1 %63, label %64, label %80

64:                                               ; preds = %47
  %65 = load i32, ptr %5, align 4, !tbaa !43
  %66 = load ptr, ptr %2, align 8, !tbaa !42
  %67 = getelementptr inbounds nuw %struct.multipart_buffer, ptr %66, i32 0, i32 3
  %68 = load i32, ptr %67, align 4, !tbaa !107
  %69 = add nsw i32 %68, %65
  store i32 %69, ptr %67, align 4, !tbaa !107
  %70 = load i32, ptr %5, align 4, !tbaa !43
  %71 = sext i32 %70 to i64
  %72 = load i64, ptr getelementptr inbounds nuw (%struct._sapi_globals_struct, ptr @sapi_globals, i32 0, i32 3), align 8, !tbaa !74
  %73 = add nsw i64 %72, %71
  store i64 %73, ptr getelementptr inbounds nuw (%struct._sapi_globals_struct, ptr @sapi_globals, i32 0, i32 3), align 8, !tbaa !74
  %74 = load i32, ptr %5, align 4, !tbaa !43
  %75 = load i32, ptr %4, align 4, !tbaa !43
  %76 = add nsw i32 %75, %74
  store i32 %76, ptr %4, align 4, !tbaa !43
  %77 = load i32, ptr %5, align 4, !tbaa !43
  %78 = load i32, ptr %3, align 4, !tbaa !43
  %79 = sub nsw i32 %78, %77
  store i32 %79, ptr %3, align 4, !tbaa !43
  br label %81

80:                                               ; preds = %47
  store i32 3, ptr %7, align 4
  br label %82

81:                                               ; preds = %64
  store i32 0, ptr %7, align 4
  br label %82

82:                                               ; preds = %81, %80
  call void @llvm.lifetime.end.p0(i64 8, ptr %6) #15
  %83 = load i32, ptr %7, align 4
  switch i32 %83, label %87 [
    i32 0, label %84
    i32 3, label %85
  ]

84:                                               ; preds = %82
  br label %44

85:                                               ; preds = %82, %44
  %86 = load i32, ptr %4, align 4, !tbaa !43
  store i32 1, ptr %7, align 4
  call void @llvm.lifetime.end.p0(i64 4, ptr %5) #15
  call void @llvm.lifetime.end.p0(i64 4, ptr %4) #15
  call void @llvm.lifetime.end.p0(i64 4, ptr %3) #15
  ret i32 %86

87:                                               ; preds = %82
  unreachable
}

; Function Attrs: nounwind uwtable
define internal i64 @multipart_buffer_read(ptr noundef %0, ptr noundef %1, i64 noundef %2, ptr noundef %3) #0 {
  %5 = alloca ptr, align 8
  %6 = alloca ptr, align 8
  %7 = alloca i64, align 8
  %8 = alloca ptr, align 8
  %9 = alloca i64, align 8
  %10 = alloca i64, align 8
  %11 = alloca ptr, align 8
  store ptr %0, ptr %5, align 8, !tbaa !42
  store ptr %1, ptr %6, align 8, !tbaa !41
  store i64 %2, ptr %7, align 8, !tbaa !44
  store ptr %3, ptr %8, align 8, !tbaa !118
  call void @llvm.lifetime.start.p0(i64 8, ptr %9) #15
  call void @llvm.lifetime.start.p0(i64 8, ptr %10) #15
  call void @llvm.lifetime.start.p0(i64 8, ptr %11) #15
  %12 = load i64, ptr %7, align 8, !tbaa !44
  %13 = load ptr, ptr %5, align 8, !tbaa !42
  %14 = getelementptr inbounds nuw %struct.multipart_buffer, ptr %13, i32 0, i32 3
  %15 = load i32, ptr %14, align 4, !tbaa !107
  %16 = sext i32 %15 to i64
  %17 = icmp ugt i64 %12, %16
  br i1 %17, label %18, label %21

18:                                               ; preds = %4
  %19 = load ptr, ptr %5, align 8, !tbaa !42
  %20 = call i32 @fill_buffer(ptr noundef %19)
  br label %21

21:                                               ; preds = %18, %4
  %22 = load ptr, ptr %5, align 8, !tbaa !42
  %23 = getelementptr inbounds nuw %struct.multipart_buffer, ptr %22, i32 0, i32 1
  %24 = load ptr, ptr %23, align 8, !tbaa !106
  %25 = load ptr, ptr %5, align 8, !tbaa !42
  %26 = getelementptr inbounds nuw %struct.multipart_buffer, ptr %25, i32 0, i32 3
  %27 = load i32, ptr %26, align 4, !tbaa !107
  %28 = load ptr, ptr %5, align 8, !tbaa !42
  %29 = getelementptr inbounds nuw %struct.multipart_buffer, ptr %28, i32 0, i32 5
  %30 = load ptr, ptr %29, align 8, !tbaa !100
  %31 = load ptr, ptr %5, align 8, !tbaa !42
  %32 = getelementptr inbounds nuw %struct.multipart_buffer, ptr %31, i32 0, i32 6
  %33 = load i32, ptr %32, align 8, !tbaa !105
  %34 = call ptr @php_ap_memstr(ptr noundef %24, i32 noundef %27, ptr noundef %30, i32 noundef %33, i32 noundef 1)
  store ptr %34, ptr %11, align 8, !tbaa !41
  %35 = icmp ne ptr %34, null
  br i1 %35, label %36, label %64

36:                                               ; preds = %21
  %37 = load ptr, ptr %11, align 8, !tbaa !41
  %38 = load ptr, ptr %5, align 8, !tbaa !42
  %39 = getelementptr inbounds nuw %struct.multipart_buffer, ptr %38, i32 0, i32 1
  %40 = load ptr, ptr %39, align 8, !tbaa !106
  %41 = ptrtoint ptr %37 to i64
  %42 = ptrtoint ptr %40 to i64
  %43 = sub i64 %41, %42
  store i64 %43, ptr %10, align 8, !tbaa !44
  %44 = load ptr, ptr %8, align 8, !tbaa !118
  %45 = icmp ne ptr %44, null
  br i1 %45, label %46, label %63

46:                                               ; preds = %36
  %47 = load ptr, ptr %5, align 8, !tbaa !42
  %48 = getelementptr inbounds nuw %struct.multipart_buffer, ptr %47, i32 0, i32 1
  %49 = load ptr, ptr %48, align 8, !tbaa !106
  %50 = load ptr, ptr %5, align 8, !tbaa !42
  %51 = getelementptr inbounds nuw %struct.multipart_buffer, ptr %50, i32 0, i32 3
  %52 = load i32, ptr %51, align 4, !tbaa !107
  %53 = load ptr, ptr %5, align 8, !tbaa !42
  %54 = getelementptr inbounds nuw %struct.multipart_buffer, ptr %53, i32 0, i32 5
  %55 = load ptr, ptr %54, align 8, !tbaa !100
  %56 = load ptr, ptr %5, align 8, !tbaa !42
  %57 = getelementptr inbounds nuw %struct.multipart_buffer, ptr %56, i32 0, i32 6
  %58 = load i32, ptr %57, align 8, !tbaa !105
  %59 = call ptr @php_ap_memstr(ptr noundef %49, i32 noundef %52, ptr noundef %55, i32 noundef %58, i32 noundef 0)
  %60 = icmp ne ptr %59, null
  br i1 %60, label %61, label %63

61:                                               ; preds = %46
  %62 = load ptr, ptr %8, align 8, !tbaa !118
  store i32 1, ptr %62, align 4, !tbaa !43
  br label %63

63:                                               ; preds = %61, %46, %36
  br label %69

64:                                               ; preds = %21
  %65 = load ptr, ptr %5, align 8, !tbaa !42
  %66 = getelementptr inbounds nuw %struct.multipart_buffer, ptr %65, i32 0, i32 3
  %67 = load i32, ptr %66, align 4, !tbaa !107
  %68 = sext i32 %67 to i64
  store i64 %68, ptr %10, align 8, !tbaa !44
  br label %69

69:                                               ; preds = %64, %63
  %70 = load i64, ptr %10, align 8, !tbaa !44
  %71 = load i64, ptr %7, align 8, !tbaa !44
  %72 = sub i64 %71, 1
  %73 = icmp ult i64 %70, %72
  br i1 %73, label %74, label %76

74:                                               ; preds = %69
  %75 = load i64, ptr %10, align 8, !tbaa !44
  br label %79

76:                                               ; preds = %69
  %77 = load i64, ptr %7, align 8, !tbaa !44
  %78 = sub i64 %77, 1
  br label %79

79:                                               ; preds = %76, %74
  %80 = phi i64 [ %75, %74 ], [ %78, %76 ]
  store i64 %80, ptr %9, align 8, !tbaa !44
  %81 = load i64, ptr %9, align 8, !tbaa !44
  %82 = icmp ugt i64 %81, 0
  br i1 %82, label %83, label %122

83:                                               ; preds = %79
  %84 = load ptr, ptr %6, align 8, !tbaa !41
  %85 = load ptr, ptr %5, align 8, !tbaa !42
  %86 = getelementptr inbounds nuw %struct.multipart_buffer, ptr %85, i32 0, i32 1
  %87 = load ptr, ptr %86, align 8, !tbaa !106
  %88 = load i64, ptr %9, align 8, !tbaa !44
  call void @llvm.memcpy.p0.p0.i64(ptr align 1 %84, ptr align 1 %87, i64 %88, i1 false)
  %89 = load ptr, ptr %6, align 8, !tbaa !41
  %90 = load i64, ptr %9, align 8, !tbaa !44
  %91 = getelementptr inbounds nuw i8, ptr %89, i64 %90
  store i8 0, ptr %91, align 1, !tbaa !33
  %92 = load ptr, ptr %11, align 8, !tbaa !41
  %93 = icmp ne ptr %92, null
  br i1 %93, label %94, label %110

94:                                               ; preds = %83
  %95 = load i64, ptr %9, align 8, !tbaa !44
  %96 = icmp ugt i64 %95, 0
  br i1 %96, label %97, label %110

97:                                               ; preds = %94
  %98 = load ptr, ptr %6, align 8, !tbaa !41
  %99 = load i64, ptr %9, align 8, !tbaa !44
  %100 = sub i64 %99, 1
  %101 = getelementptr inbounds nuw i8, ptr %98, i64 %100
  %102 = load i8, ptr %101, align 1, !tbaa !33
  %103 = sext i8 %102 to i32
  %104 = icmp eq i32 %103, 13
  br i1 %104, label %105, label %110

105:                                              ; preds = %97
  %106 = load ptr, ptr %6, align 8, !tbaa !41
  %107 = load i64, ptr %9, align 8, !tbaa !44
  %108 = add i64 %107, -1
  store i64 %108, ptr %9, align 8, !tbaa !44
  %109 = getelementptr inbounds nuw i8, ptr %106, i64 %108
  store i8 0, ptr %109, align 1, !tbaa !33
  br label %110

110:                                              ; preds = %105, %97, %94, %83
  %111 = load i64, ptr %9, align 8, !tbaa !44
  %112 = trunc i64 %111 to i32
  %113 = load ptr, ptr %5, align 8, !tbaa !42
  %114 = getelementptr inbounds nuw %struct.multipart_buffer, ptr %113, i32 0, i32 3
  %115 = load i32, ptr %114, align 4, !tbaa !107
  %116 = sub nsw i32 %115, %112
  store i32 %116, ptr %114, align 4, !tbaa !107
  %117 = load i64, ptr %9, align 8, !tbaa !44
  %118 = load ptr, ptr %5, align 8, !tbaa !42
  %119 = getelementptr inbounds nuw %struct.multipart_buffer, ptr %118, i32 0, i32 1
  %120 = load ptr, ptr %119, align 8, !tbaa !106
  %121 = getelementptr inbounds nuw i8, ptr %120, i64 %117
  store ptr %121, ptr %119, align 8, !tbaa !106
  br label %122

122:                                              ; preds = %110, %79
  %123 = load i64, ptr %9, align 8, !tbaa !44
  call void @llvm.lifetime.end.p0(i64 8, ptr %11) #15
  call void @llvm.lifetime.end.p0(i64 8, ptr %10) #15
  call void @llvm.lifetime.end.p0(i64 8, ptr %9) #15
  ret i64 %123
}