; Function Attrs: nounwind uwtable
define internal fastcc range(i64 -1, 5120) i64 @multipart_buffer_read(ptr noundef captures(none) %0, ptr noundef nonnull captures(none) %1, ptr noundef writeonly captures(address_is_null) %2) unnamed_addr #0 {
  %4 = getelementptr inbounds nuw i8, ptr %0, i64 20
  %5 = load i32, ptr %4, align 4, !tbaa !56
  %6 = icmp ult i32 %5, 5120
  br i1 %6, label %7, label %fill_buffer.exit

7:                                                ; preds = %3
  %.not = icmp eq i32 %5, 0
  %.pre39.i = load ptr, ptr %0, align 8, !tbaa !49
  br i1 %.not, label %13, label %8

8:                                                ; preds = %7
  %9 = getelementptr inbounds nuw i8, ptr %0, i64 8
  %10 = load ptr, ptr %9, align 8, !tbaa !55
  %.not.i = icmp eq ptr %10, %.pre39.i
  br i1 %.not.i, label %13, label %11

11:                                               ; preds = %8
  %12 = zext nneg i32 %5 to i64
  tail call void @llvm.memmove.p0.p0.i64(ptr align 1 %.pre39.i, ptr align 1 %10, i64 %12, i1 false)
  %.pre.i = load ptr, ptr %0, align 8, !tbaa !49
  %.pre40.i = load i32, ptr %4, align 4, !tbaa !56
  br label %13

13:                                               ; preds = %11, %8, %7
  %14 = phi i32 [ %.pre40.i, %11 ], [ %5, %8 ], [ 0, %7 ]
  %15 = phi ptr [ %.pre.i, %11 ], [ %.pre39.i, %8 ], [ %.pre39.i, %7 ]
  %16 = getelementptr inbounds nuw i8, ptr %0, i64 8
  store ptr %15, ptr %16, align 8, !tbaa !55
  %17 = getelementptr inbounds nuw i8, ptr %0, i64 16
  %18 = load i32, ptr %17, align 8, !tbaa !53
  %19 = sub nsw i32 %18, %14
  %20 = icmp sgt i32 %19, 0
  br i1 %20, label %.lr.ph.i, label %fill_buffer.exit

.lr.ph.i:                                         ; preds = %13, %30
  %21 = phi i32 [ %31, %30 ], [ %14, %13 ]
  %.02436.i = phi i32 [ %35, %30 ], [ %19, %13 ]
  %22 = load ptr, ptr %0, align 8, !tbaa !49
  %23 = sext i32 %21 to i64
  %24 = getelementptr inbounds i8, ptr %22, i64 %23
  %25 = load ptr, ptr getelementptr inbounds nuw (i8, ptr @sapi_module, i64 112), align 8, !tbaa !60
  %26 = zext nneg i32 %.02436.i to i64
  %27 = tail call i64 %25(ptr noundef %24, i64 noundef %26) #21
  %28 = trunc i64 %27 to i32
  %29 = icmp sgt i32 %28, 0
  %.pre.pre = load i32, ptr %4, align 4, !tbaa !56
  br i1 %29, label %30, label %fill_buffer.exit

30:                                               ; preds = %.lr.ph.i
  %31 = add nsw i32 %.pre.pre, %28
  store i32 %31, ptr %4, align 4, !tbaa !56
  %32 = and i64 %27, 2147483647
  %33 = load i64, ptr getelementptr inbounds nuw (i8, ptr @sapi_globals, i64 240), align 8, !tbaa !61
  %34 = add nsw i64 %33, %32
  store i64 %34, ptr getelementptr inbounds nuw (i8, ptr @sapi_globals, i64 240), align 8, !tbaa !61
  %35 = sub nsw i32 %.02436.i, %28
  %36 = icmp sgt i32 %35, 0
  br i1 %36, label %.lr.ph.i, label %fill_buffer.exit

fill_buffer.exit:                                 ; preds = %30, %.lr.ph.i, %13, %3
  %37 = phi i32 [ %14, %13 ], [ %5, %3 ], [ %31, %30 ], [ %.pre.pre, %.lr.ph.i ]
  %38 = getelementptr inbounds nuw i8, ptr %0, i64 8
  %39 = load ptr, ptr %38, align 8, !tbaa !55
  %40 = getelementptr inbounds nuw i8, ptr %0, i64 32
  %41 = load ptr, ptr %40, align 8, !tbaa !109
  %42 = getelementptr inbounds nuw i8, ptr %0, i64 40
  %43 = load i32, ptr %42, align 8, !tbaa !54
  %44 = load i8, ptr %41, align 1, !tbaa !32
  %45 = sext i8 %44 to i32
  %46 = sext i32 %37 to i64
  %47 = tail call ptr @memchr(ptr noundef %39, i32 noundef %45, i64 noundef %46) #22
  %.not23.i = icmp eq ptr %47, null
  br i1 %.not23.i, label %php_ap_memstr.exit50.thread, label %.lr.ph.i45

.lr.ph.i45:                                       ; preds = %fill_buffer.exit
  %48 = ptrtoint ptr %39 to i64
  %invariant.op.i = add i32 %37, -1
  br label %49

49:                                               ; preds = %57, %.lr.ph.i45
  %50 = phi ptr [ %47, %.lr.ph.i45 ], [ %60, %57 ]
  %51 = ptrtoint ptr %50 to i64
  %.neg.us.i = sub i64 %48, %51
  %52 = trunc i64 %.neg.us.i to i32
  %53 = add i32 %37, %52
  %54 = tail call i32 @llvm.smin.i32(i32 %43, i32 %53)
  %55 = sext i32 %54 to i64
  %bcmp.us.i = tail call i32 @bcmp(ptr nonnull readonly %41, ptr nonnull %50, i64 %55)
  %56 = icmp eq i32 %bcmp.us.i, 0
  br i1 %56, label %php_ap_memstr.exit, label %57

57:                                               ; preds = %49
  %58 = getelementptr inbounds nuw i8, ptr %50, i64 1
  %.reass.i = add i32 %invariant.op.i, %52
  %59 = sext i32 %.reass.i to i64
  %60 = tail call ptr @memchr(ptr noundef nonnull %58, i32 noundef %45, i64 noundef %59) #22
  %.not.us.i = icmp eq ptr %60, null
  br i1 %.not.us.i, label %php_ap_memstr.exit50.thread, label %49

php_ap_memstr.exit:                               ; preds = %49
  %61 = sub i64 %51, %48
  %.not42 = icmp eq ptr %2, null
  br i1 %.not42, label %php_ap_memstr.exit50.thread, label %.lr.ph.split.i

.lr.ph.split.i:                                   ; preds = %php_ap_memstr.exit, %69
  %62 = phi ptr [ %73, %69 ], [ %47, %php_ap_memstr.exit ]
  %63 = ptrtoint ptr %62 to i64
  %.neg.i = sub i64 %48, %63
  %64 = trunc i64 %.neg.i to i32
  %65 = add i32 %37, %64
  %66 = tail call i32 @llvm.smin.i32(i32 %43, i32 %65)
  %67 = sext i32 %66 to i64
  %bcmp.i = tail call i32 @bcmp(ptr nonnull readonly %41, ptr nonnull %62, i64 %67)
  %68 = icmp ne i32 %bcmp.i, 0
  %.not22.i = icmp slt i32 %65, %43
  %or.cond.i = or i1 %68, %.not22.i
  br i1 %or.cond.i, label %69, label %php_ap_memstr.exit50

69:                                               ; preds = %.lr.ph.split.i
  %70 = getelementptr inbounds nuw i8, ptr %62, i64 1
  %71 = add nsw i32 %65, -1
  %72 = sext i32 %71 to i64
  %73 = tail call ptr @memchr(ptr noundef nonnull %70, i32 noundef %45, i64 noundef %72) #22
  %.not.i49 = icmp eq ptr %73, null
  br i1 %.not.i49, label %php_ap_memstr.exit50.thread, label %.lr.ph.split.i

php_ap_memstr.exit50:                             ; preds = %.lr.ph.split.i
  store i32 1, ptr %2, align 4, !tbaa !79
  br label %php_ap_memstr.exit50.thread

php_ap_memstr.exit50.thread:                      ; preds = %57, %69, %php_ap_memstr.exit, %fill_buffer.exit, %php_ap_memstr.exit50
  %.not53 = phi i1 [ false, %php_ap_memstr.exit50 ], [ false, %php_ap_memstr.exit ], [ true, %fill_buffer.exit ], [ false, %69 ], [ true, %57 ]
  %.037 = phi i64 [ %61, %php_ap_memstr.exit50 ], [ %61, %php_ap_memstr.exit ], [ %46, %fill_buffer.exit ], [ %61, %69 ], [ %46, %57 ]
  %74 = tail call i64 @llvm.umin.i64(i64 %.037, i64 5119)
  %.not44 = icmp eq i64 %.037, 0
  br i1 %.not44, label %90, label %75

75:                                               ; preds = %php_ap_memstr.exit50.thread
  tail call void @llvm.memcpy.p0.p0.i64(ptr nonnull align 1 %1, ptr align 1 %39, i64 %74, i1 false)
  %76 = getelementptr inbounds nuw i8, ptr %1, i64 %74
  store i8 0, ptr %76, align 1, !tbaa !32
  br i1 %.not53, label %84, label %77

77:                                               ; preds = %75
  %78 = getelementptr i8, ptr %76, i64 -1
  %79 = load i8, ptr %78, align 1, !tbaa !32
  %80 = icmp eq i8 %79, 13
  br i1 %80, label %81, label %84

81:                                               ; preds = %77
  %82 = add nsw i64 %74, -1
  %83 = getelementptr inbounds nuw i8, ptr %1, i64 %82
  store i8 0, ptr %83, align 1, !tbaa !32
  br label %84

84:                                               ; preds = %81, %77, %75
  %.1 = phi i64 [ %82, %81 ], [ %74, %77 ], [ %74, %75 ]
  %85 = trunc nsw i64 %.1 to i32
  %86 = load i32, ptr %4, align 4, !tbaa !56
  %87 = sub nsw i32 %86, %85
  store i32 %87, ptr %4, align 4, !tbaa !56
  %88 = load ptr, ptr %38, align 8, !tbaa !55
  %89 = getelementptr inbounds nuw i8, ptr %88, i64 %.1
  store ptr %89, ptr %38, align 8, !tbaa !55
  br label %90

90:                                               ; preds = %84, %php_ap_memstr.exit50.thread
  %.0 = phi i64 [ %.1, %84 ], [ 0, %php_ap_memstr.exit50.thread ]
  ret i64 %.0
}